target datalayout = "e-m:e-p270:32:32-p271:32:32-p272:64:64-i64:64-i128:128-f80:128-n8:16:32:64-S128"
target triple = "x86_64-pc-linux-gnu"

%struct._e_guid_t = type { i32, i16, i16, [8 x i8] }

@hf_mswsp_guid_time_low = internal global i32 0, align 4
@hf_mswsp_guid_time_mid = internal global i32 0, align 4
@hf_mswsp_guid_time_high = internal global i32 0, align 4
@hf_mswsp_guid_time_clock_hi = internal global i32 0, align 4
@hf_mswsp_guid_time_clock_low = internal global i32 0, align 4
@hf_mswsp_guid_node = internal global i32 0, align 4
@ett_GUID = internal global i32 0, align 4
@.str.1168 = private unnamed_addr constant [12 x i8] c"%s: %s {%s}\00", align 1
@.str.1169 = private unnamed_addr constant [1 x i8] zeroinitializer, align 1

; Function Attrs: null_pointer_is_valid sspstrong uwtable
define internal i32 @parse_guid(ptr noundef %0, i32 noundef %1, ptr noundef %2, ptr noundef %3, ptr noundef %4) #0 {
  %6 = alloca ptr, align 8
  %7 = alloca i32, align 4
  %8 = alloca ptr, align 8
  %9 = alloca ptr, align 8
  %10 = alloca ptr, align 8
  %11 = alloca ptr, align 8
  %12 = alloca ptr, align 8
  %13 = alloca ptr, align 8
  %14 = alloca ptr, align 8
  store ptr %0, ptr %6, align 8
  store i32 %1, ptr %7, align 4
  store ptr %2, ptr %8, align 8
  store ptr %3, ptr %9, align 8
  store ptr %4, ptr %10, align 8
  call void @llvm.lifetime.start.p0(i64 8, ptr %11) #11
  call void @llvm.lifetime.start.p0(i64 8, ptr %12) #11
  call void @llvm.lifetime.start.p0(i64 8, ptr %13) #11
  call void @llvm.lifetime.start.p0(i64 8, ptr %14) #11
  %15 = load ptr, ptr %6, align 8
  %16 = load i32, ptr %7, align 4
  %17 = load ptr, ptr %9, align 8
  call void @tvb_get_letohguid(ptr noundef %15, i32 noundef %16, ptr noundef %17)
  %18 = call ptr @wmem_packet_scope()
  %19 = load ptr, ptr %9, align 8
  %20 = call ptr @guid_to_str(ptr noundef %18, ptr noundef %19)
  store ptr %20, ptr %11, align 8
  %21 = load ptr, ptr %9, align 8
  %22 = call ptr @wmem_packet_scope()
  %23 = call ptr @guids_get_guid_name(ptr noundef %21, ptr noundef %22)
  store ptr %23, ptr %12, align 8
  %24 = load ptr, ptr %8, align 8
  %25 = load ptr, ptr %6, align 8
  %26 = load i32, ptr %7, align 4
  %27 = load i32, ptr @ett_GUID, align 4
  %28 = load ptr, ptr %10, align 8
  %29 = load ptr, ptr %12, align 8
  %30 = icmp ne ptr %29, null
  br i1 %30, label %31, label %33

31:                                               ; preds = %5
  %32 = load ptr, ptr %12, align 8
  br label %34

33:                                               ; preds = %5
  br label %34

34:                                               ; preds = %33, %31
  %35 = phi ptr [ %32, %31 ], [ @.str.1169, %33 ]
  %36 = load ptr, ptr %11, align 8
  %37 = call ptr (ptr, ptr, i32, i32, i32, ptr, ptr, ...) @proto_tree_add_subtree_format(ptr noundef %24, ptr noundef %25, i32 noundef %26, i32 noundef 16, i32 noundef %27, ptr noundef null, ptr noundef @.str.1168, ptr noundef %28, ptr noundef %35, ptr noundef %36)
  store ptr %37, ptr %14, align 8
  %38 = load ptr, ptr %14, align 8
  %39 = load i32, ptr @hf_mswsp_guid_time_low, align 4
  %40 = load ptr, ptr %6, align 8
  %41 = load i32, ptr %7, align 4
  %42 = call ptr @proto_tree_add_item(ptr noundef %38, i32 noundef %39, ptr noundef %40, i32 noundef %41, i32 noundef 4, i32 noundef -2147483648)
  %43 = load i32, ptr %7, align 4
  %44 = add i32 %43, 4
  store i32 %44, ptr %7, align 4
  %45 = load ptr, ptr %14, align 8
  %46 = load i32, ptr @hf_mswsp_guid_time_mid, align 4
  %47 = load ptr, ptr %6, align 8
  %48 = load i32, ptr %7, align 4
  %49 = call ptr @proto_tree_add_item(ptr noundef %45, i32 noundef %46, ptr noundef %47, i32 noundef %48, i32 noundef 2, i32 noundef -2147483648)
  %50 = load i32, ptr %7, align 4
  %51 = add i32 %50, 2
  store i32 %51, ptr %7, align 4
  %52 = load ptr, ptr %14, align 8
  %53 = load i32, ptr @hf_mswsp_guid_time_high, align 4
  %54 = load ptr, ptr %6, align 8
  %55 = load i32, ptr %7, align 4
  %56 = call ptr @proto_tree_add_item(ptr noundef %52, i32 noundef %53, ptr noundef %54, i32 noundef %55, i32 noundef 2, i32 noundef -2147483648)
  %57 = load i32, ptr %7, align 4
  %58 = add i32 %57, 2
  store i32 %58, ptr %7, align 4
  %59 = load ptr, ptr %14, align 8
  %60 = load i32, ptr @hf_mswsp_guid_time_clock_hi, align 4
  %61 = load ptr, ptr %6, align 8
  %62 = load i32, ptr %7, align 4
  %63 = call ptr @proto_tree_add_item(ptr noundef %59, i32 noundef %60, ptr noundef %61, i32 noundef %62, i32 noundef 1, i32 noundef -2147483648)
  %64 = load i32, ptr %7, align 4
  %65 = add i32 %64, 1
  store i32 %65, ptr %7, align 4
  %66 = load ptr, ptr %14, align 8
  %67 = load i32, ptr @hf_mswsp_guid_time_clock_low, align 4
  %68 = load ptr, ptr %6, align 8
  %69 = load i32, ptr %7, align 4
  %70 = call ptr @proto_tree_add_item(ptr noundef %66, i32 noundef %67, ptr noundef %68, i32 noundef %69, i32 noundef 1, i32 noundef -2147483648)
  %71 = load i32, ptr %7, align 4
  %72 = add i32 %71, 1
  store i32 %72, ptr %7, align 4
  %73 = call ptr @wmem_packet_scope()
  %74 = load ptr, ptr %9, align 8
  %75 = getelementptr inbounds nuw %struct._e_guid_t, ptr %74, i32 0, i32 3
  %76 = getelementptr [8 x i8], ptr %75, i64 0, i64 2
  %77 = call ptr @bytes_to_str_punct_maxlen(ptr noundef %73, ptr noundef %76, i64 noundef 6, i8 noundef signext 58, i64 noundef 24)
  store ptr %77, ptr %13, align 8
  %78 = load ptr, ptr %14, align 8
  %79 = load i32, ptr @hf_mswsp_guid_node, align 4
  %80 = load ptr, ptr %6, align 8
  %81 = load i32, ptr %7, align 4
  %82 = load ptr, ptr %13, align 8
  %83 = call ptr @proto_tree_add_string(ptr noundef %78, i32 noundef %79, ptr noundef %80, i32 noundef %81, i32 noundef 6, ptr noundef %82)
  %84 = load i32, ptr %7, align 4
  %85 = add i32 %84, 6
  store i32 %85, ptr %7, align 4
  %86 = load i32, ptr %7, align 4
  call void @llvm.lifetime.end.p0(i64 8, ptr %14) #11
  call void @llvm.lifetime.end.p0(i64 8, ptr %13) #11
  call void @llvm.lifetime.end.p0(i64 8, ptr %12) #11
  call void @llvm.lifetime.end.p0(i64 8, ptr %11) #11
  ret i32 %86
}