; Function Attrs: null_pointer_is_valid sspstrong uwtable
define internal fastcc noundef i32 @parse_guid(ptr noundef %0, i32 noundef %1, ptr noundef %2, ptr noundef %3, ptr noundef %4) unnamed_addr #0 {
  tail call void @tvb_get_letohguid(ptr noundef %0, i32 noundef %1, ptr noundef %3)
  %6 = tail call ptr @wmem_packet_scope()
  %7 = tail call ptr @guid_to_str(ptr noundef %6, ptr noundef %3)
  %8 = tail call ptr @wmem_packet_scope()
  %9 = tail call ptr @guids_get_guid_name(ptr noundef %3, ptr noundef %8)
  %10 = load i32, ptr @ett_GUID, align 4
  %.not = icmp eq ptr %9, null
  %11 = select i1 %.not, ptr @.str.1169, ptr %9
  %12 = tail call ptr (ptr, ptr, i32, i32, i32, ptr, ptr, ...) @proto_tree_add_subtree_format(ptr noundef %2, ptr noundef %0, i32 noundef %1, i32 noundef 16, i32 noundef %10, ptr noundef null, ptr noundef nonnull @.str.1168, ptr noundef %4, ptr noundef nonnull %11, ptr noundef %7)
  %13 = load i32, ptr @hf_mswsp_guid_time_low, align 4
  %14 = tail call ptr @proto_tree_add_item(ptr noundef %12, i32 noundef %13, ptr noundef %0, i32 noundef %1, i32 noundef 4, i32 noundef -2147483648)
  %15 = add i32 %1, 4
  %16 = load i32, ptr @hf_mswsp_guid_time_mid, align 4
  %17 = tail call ptr @proto_tree_add_item(ptr noundef %12, i32 noundef %16, ptr noundef %0, i32 noundef %15, i32 noundef 2, i32 noundef -2147483648)
  %18 = add i32 %1, 6
  %19 = load i32, ptr @hf_mswsp_guid_time_high, align 4
  %20 = tail call ptr @proto_tree_add_item(ptr noundef %12, i32 noundef %19, ptr noundef %0, i32 noundef %18, i32 noundef 2, i32 noundef -2147483648)
  %21 = add i32 %1, 8
  %22 = load i32, ptr @hf_mswsp_guid_time_clock_hi, align 4
  %23 = tail call ptr @proto_tree_add_item(ptr noundef %12, i32 noundef %22, ptr noundef %0, i32 noundef %21, i32 noundef 1, i32 noundef -2147483648)
  %24 = add i32 %1, 9
  %25 = load i32, ptr @hf_mswsp_guid_time_clock_low, align 4
  %26 = tail call ptr @proto_tree_add_item(ptr noundef %12, i32 noundef %25, ptr noundef %0, i32 noundef %24, i32 noundef 1, i32 noundef -2147483648)
  %27 = add i32 %1, 10
  %28 = tail call ptr @wmem_packet_scope()
  %29 = getelementptr i8, ptr %3, i64 10
  %30 = tail call ptr @bytes_to_str_punct_maxlen(ptr noundef %28, ptr noundef %29, i64 noundef 6, i8 noundef signext 58, i64 noundef 24)
  %31 = load i32, ptr @hf_mswsp_guid_node, align 4
  %32 = tail call ptr @proto_tree_add_string(ptr noundef %12, i32 noundef %31, ptr noundef %0, i32 noundef %27, i32 noundef 6, ptr noundef %30)
  %33 = add i32 %1, 16
  ret i32 %33
}